; ModuleID = '26/206.cpp'
source_filename = "26/206.cpp"
target datalayout = "e-m:e-p270:32:32-p271:32:32-p272:64:64-i64:64-f80:128-n8:16:32:64-S128"
target triple = "x86_64-pc-linux-gnu"

%"class.std::ios_base::Init" = type { i8 }
%"class.std::basic_istream" = type { i32 (...)**, i64, %"class.std::basic_ios" }
%"class.std::basic_ios" = type { %"class.std::ios_base", %"class.std::basic_ostream"*, i8, i8, %"class.std::basic_streambuf"*, %"class.std::ctype"*, %"class.std::num_put"*, %"class.std::num_get"* }
%"class.std::ios_base" = type { i32 (...)**, i64, i64, i32, i32, i32, %"struct.std::ios_base::_Callback_list"*, %"struct.std::ios_base::_Words", [8 x %"struct.std::ios_base::_Words"], i32, %"struct.std::ios_base::_Words"*, %"class.std::locale" }
%"struct.std::ios_base::_Callback_list" = type { %"struct.std::ios_base::_Callback_list"*, void (i32, %"class.std::ios_base"*, i32)*, i32, i32 }
%"struct.std::ios_base::_Words" = type { i8*, i64 }
%"class.std::locale" = type { %"class.std::locale::_Impl"* }
%"class.std::locale::_Impl" = type { i32, %"class.std::locale::facet"**, i64, %"class.std::locale::facet"**, i8** }
%"class.std::locale::facet" = type <{ i32 (...)**, i32, [4 x i8] }>
%"class.std::basic_ostream" = type { i32 (...)**, %"class.std::basic_ios" }
%"class.std::basic_streambuf" = type { i32 (...)**, i8*, i8*, i8*, i8*, i8*, i8*, %"class.std::locale" }
%"class.std::ctype" = type <{ %"class.std::locale::facet.base", [4 x i8], %struct.__locale_struct*, i8, [7 x i8], i32*, i32*, i16*, i8, [256 x i8], [256 x i8], i8, [6 x i8] }>
%"class.std::locale::facet.base" = type <{ i32 (...)**, i32 }>
%struct.__locale_struct = type { [13 x %struct.__locale_data*], i16*, i32*, i32*, [13 x i8*] }
%struct.__locale_data = type opaque
%"class.std::num_put" = type { %"class.std::locale::facet.base", [4 x i8] }
%"class.std::num_get" = type { %"class.std::locale::facet.base", [4 x i8] }

@_ZStL8__ioinit = internal global %"class.std::ios_base::Init" zeroinitializer, align 1
@__dso_handle = external hidden global i8
@_ZSt3cin = external dso_local global %"class.std::basic_istream", align 8
@_ZSt4cout = external dso_local global %"class.std::basic_ostream", align 8
@llvm.global_ctors = appending global [1 x { i32, void ()*, i8* }] [{ i32, void ()*, i8* } { i32 65535, void ()* @_GLOBAL__sub_I_206.cpp, i8* null }]

; Function Attrs: noinline uwtable
define internal void @__cxx_global_var_init() #0 section ".text.startup" {
  call void @_ZNSt8ios_base4InitC1Ev(%"class.std::ios_base::Init"* @_ZStL8__ioinit)
  %1 = call i32 @__cxa_atexit(void (i8*)* bitcast (void (%"class.std::ios_base::Init"*)* @_ZNSt8ios_base4InitD1Ev to void (i8*)*), i8* getelementptr inbounds (%"class.std::ios_base::Init", %"class.std::ios_base::Init"* @_ZStL8__ioinit, i32 0, i32 0), i8* @__dso_handle) #3
  ret void
}

declare dso_local void @_ZNSt8ios_base4InitC1Ev(%"class.std::ios_base::Init"*) unnamed_addr #1

; Function Attrs: nounwind
declare dso_local void @_ZNSt8ios_base4InitD1Ev(%"class.std::ios_base::Init"*) unnamed_addr #2

; Function Attrs: nounwind
declare dso_local i32 @__cxa_atexit(void (i8*)*, i8*, i8*) #3

; Function Attrs: noinline norecurse uwtable
define dso_local i32 @main() #4 {
  %1 = alloca i32, align 4
  %2 = alloca [100 x i8], align 16
  %3 = alloca i8*, align 8
  %4 = alloca i32, align 4
  %5 = alloca i32, align 4
  %6 = alloca i32, align 4
  store i32 0, i32* %1, align 4
  %7 = getelementptr inbounds [100 x i8], [100 x i8]* %2, i64 0, i64 0
  %8 = call dereferenceable(280) %"class.std::basic_istream"* @_ZNSi7getlineEPcl(%"class.std::basic_istream"* @_ZSt3cin, i8* %7, i64 100)
  %9 = getelementptr inbounds [100 x i8], [100 x i8]* %2, i64 0, i64 0
  store i8* %9, i8** %3, align 8
  store i32 0, i32* %4, align 4
  br label %10

10:                                               ; preds = %72, %0
  %11 = load i8*, i8** %3, align 8
  %12 = load i32, i32* %4, align 4
  %13 = sext i32 %12 to i64
  %14 = getelementptr inbounds i8, i8* %11, i64 %13
  %15 = load i8, i8* %14, align 1
  %16 = sext i8 %15 to i32
  %17 = icmp ne i32 %16, 0
  br i1 %17, label %18, label %75

18:                                               ; preds = %10
  %19 = load i8*, i8** %3, align 8
  %20 = load i32, i32* %4, align 4
  %21 = sext i32 %20 to i64
  %22 = getelementptr inbounds i8, i8* %19, i64 %21
  %23 = load i8, i8* %22, align 1
  %24 = sext i8 %23 to i32
  %25 = icmp eq i32 %24, 32
  br i1 %25, label %26, label %71

26:                                               ; preds = %18
  %27 = load i32, i32* %4, align 4
  %28 = add nsw i32 %27, 1
  store i32 %28, i32* %5, align 4
  br label %29

29:                                               ; preds = %66, %26
  %30 = load i8*, i8** %3, align 8
  %31 = load i32, i32* %5, align 4
  %32 = sext i32 %31 to i64
  %33 = getelementptr inbounds i8, i8* %30, i64 %32
  %34 = load i8, i8* %33, align 1
  %35 = sext i8 %34 to i32
  %36 = icmp eq i32 %35, 32
  br i1 %36, label %37, label %64

37:                                               ; preds = %29
  %38 = load i32, i32* %5, align 4
  %39 = add nsw i32 %38, -1
  store i32 %39, i32* %5, align 4
  %40 = load i32, i32* %5, align 4
  store i32 %40, i32* %6, align 4
  br label %41

41:                                               ; preds = %60, %37
  %42 = load i8*, i8** %3, align 8
  %43 = load i32, i32* %6, align 4
  %44 = sext i32 %43 to i64
  %45 = getelementptr inbounds i8, i8* %42, i64 %44
  %46 = load i8, i8* %45, align 1
  %47 = sext i8 %46 to i32
  %48 = icmp ne i32 %47, 0
  br i1 %48, label %49, label %63

49:                                               ; preds = %41
  %50 = load i8*, i8** %3, align 8
  %51 = load i32, i32* %6, align 4
  %52 = sext i32 %51 to i64
  %53 = getelementptr inbounds i8, i8* %50, i64 %52
  %54 = getelementptr inbounds i8, i8* %53, i64 1
  %55 = load i8, i8* %54, align 1
  %56 = load i8*, i8** %3, align 8
  %57 = load i32, i32* %6, align 4
  %58 = sext i32 %57 to i64
  %59 = getelementptr inbounds i8, i8* %56, i64 %58
  store i8 %55, i8* %59, align 1
  br label %60

60:                                               ; preds = %49
  %61 = load i32, i32* %6, align 4
  %62 = add nsw i32 %61, 1
  store i32 %62, i32* %6, align 4
  br label %41

63:                                               ; preds = %41
  br label %65

64:                                               ; preds = %29
  br label %69

65:                                               ; preds = %63
  br label %66

66:                                               ; preds = %65
  %67 = load i32, i32* %5, align 4
  %68 = add nsw i32 %67, 1
  store i32 %68, i32* %5, align 4
  br label %29

69:                                               ; preds = %64
  %70 = load i32, i32* %5, align 4
  store i32 %70, i32* %4, align 4
  br label %71

71:                                               ; preds = %69, %18
  br label %72

72:                                               ; preds = %71
  %73 = load i32, i32* %4, align 4
  %74 = add nsw i32 %73, 1
  store i32 %74, i32* %4, align 4
  br label %10

75:                                               ; preds = %10
  %76 = load i8*, i8** %3, align 8
  %77 = call dereferenceable(272) %"class.std::basic_ostream"* @_ZStlsISt11char_traitsIcEERSt13basic_ostreamIcT_ES5_PKc(%"class.std::basic_ostream"* dereferenceable(272) @_ZSt4cout, i8* %76)
  %78 = call dereferenceable(272) %"class.std::basic_ostream"* @_ZNSolsEPFRSoS_E(%"class.std::basic_ostream"* %77, %"class.std::basic_ostream"* (%"class.std::basic_ostream"*)* @_ZSt4endlIcSt11char_traitsIcEERSt13basic_ostreamIT_T0_ES6_)
  ret i32 0
}

declare dso_local dereferenceable(280) %"class.std::basic_istream"* @_ZNSi7getlineEPcl(%"class.std::basic_istream"*, i8*, i64) #1

declare dso_local dereferenceable(272) %"class.std::basic_ostream"* @_ZStlsISt11char_traitsIcEERSt13basic_ostreamIcT_ES5_PKc(%"class.std::basic_ostream"* dereferenceable(272), i8*) #1

declare dso_local dereferenceable(272) %"class.std::basic_ostream"* @_ZNSolsEPFRSoS_E(%"class.std::basic_ostream"*, %"class.std::basic_ostream"* (%"class.std::basic_ostream"*)*) #1

declare dso_local dereferenceable(272) %"class.std::basic_ostream"* @_ZSt4endlIcSt11char_traitsIcEERSt13basic_ostreamIT_T0_ES6_(%"class.std::basic_ostream"* dereferenceable(272)) #1

; Function Attrs: noinline uwtable
define internal void @_GLOBAL__sub_I_206.cpp() #0 section ".text.startup" {
  call void @__cxx_global_var_init()
  ret void
}


!llvm.module.flags = !{!0}
!llvm.ident = !{!1}

!0 = !{i32 1, !"wchar_size", i32 4}
!1 = !{!"clang version 10.0.0-4ubuntu1 "}
